target datalayout = "e-m:e-p270:32:32-p271:32:32-p272:64:64-i64:64-i128:128-f80:128-n8:16:32:64-S128"
target triple = "x86_64-pc-linux-gnu"

%struct.ComplexMatrix4 = type { [4 x [4 x double]], [4 x [4 x double]] }
%struct.Qureg = type { i32, i32, i32, i64, i64, i32, i32, %struct.ComplexArray, %struct.ComplexArray, %struct.ComplexArray, ptr, ptr, ptr, ptr, ptr, ptr }
%struct.ComplexArray = type { ptr, ptr }

; Function Attrs: nounwind uwtable
define void @validateMultiQubitMatrixFitsInNode(ptr noundef byval(%struct.Qureg) align 8 %0, i32 noundef %1, ptr noundef %2) #0 {
  %4 = alloca i32, align 4
  %5 = alloca ptr, align 8
  store i32 %1, ptr %4, align 4, !tbaa !9
  store ptr %2, ptr %5, align 8, !tbaa !4
  %6 = getelementptr inbounds nuw %struct.Qureg, ptr %0, i32 0, i32 3
  %7 = load i64, ptr %6, align 8, !tbaa !46
  %8 = load i32, ptr %4, align 4, !tbaa !9
  %9 = zext i32 %8 to i64
  %10 = shl i64 1, %9
  %11 = icmp sge i64 %7, %10
  %12 = zext i1 %11 to i32
  %13 = load ptr, ptr %5, align 8, !tbaa !4
  call void @QuESTAssert(i32 noundef %12, i32 noundef 46, ptr noundef %13)
  ret void
}

; Function Attrs: nounwind uwtable
define void @QuESTAssert(i32 noundef %0, i32 noundef %1, ptr noundef %2) #0 {
  %4 = alloca i32, align 4
  %5 = alloca i32, align 4
  %6 = alloca ptr, align 8
  store i32 %0, ptr %4, align 4, !tbaa !9
  store i32 %1, ptr %5, align 4, !tbaa !9
  store ptr %2, ptr %6, align 8, !tbaa !4
  %7 = load i32, ptr %4, align 4, !tbaa !9
  %8 = icmp ne i32 %7, 0
  br i1 %8, label %15, label %9

9:                                                ; preds = %3
  %10 = load i32, ptr %5, align 4, !tbaa !9
  %11 = zext i32 %10 to i64
  %12 = getelementptr inbounds nuw [92 x ptr], ptr @errorMessages, i64 0, i64 %11
  %13 = load ptr, ptr %12, align 8, !tbaa !4
  %14 = load ptr, ptr %6, align 8, !tbaa !4
  call void @invalidQuESTInputError(ptr noundef %13, ptr noundef %14)
  br label %15

15:                                               ; preds = %9, %3
  ret void
}

; Function Attrs: nounwind uwtable
define i32 @isCompletelyPositiveMap4(ptr noundef %0, i32 noundef %1) #0 {
  %3 = alloca i32, align 4
  %4 = alloca ptr, align 8
  %5 = alloca i32, align 4
  %6 = alloca double, align 8
  %7 = alloca i32, align 4
  %8 = alloca i32, align 4
  %9 = alloca i32, align 4
  %10 = alloca double, align 8
  %11 = alloca double, align 8
  %12 = alloca i32, align 4
  %13 = alloca i32, align 4
  %14 = alloca double, align 8
  %15 = alloca double, align 8
  store ptr %0, ptr %4, align 8, !tbaa !26
  store i32 %1, ptr %5, align 4, !tbaa !9
  call void @llvm.lifetime.start.p0(i64 8, ptr %6) #7
  store double 1.000000e-26, ptr %6, align 8, !tbaa !15
  call void @llvm.lifetime.start.p0(i64 4, ptr %7) #7
  store i32 0, ptr %7, align 4, !tbaa !9
  br label %16

16:                                               ; preds = %177, %2
  %17 = load i32, ptr %7, align 4, !tbaa !9
  %18 = icmp slt i32 %17, 4
  br i1 %18, label %20, label %19

19:                                               ; preds = %16
  store i32 2, ptr %8, align 4
  br label %180

20:                                               ; preds = %16
  call void @llvm.lifetime.start.p0(i64 4, ptr %9) #7
  store i32 0, ptr %9, align 4, !tbaa !9
  br label %21

21:                                               ; preds = %171, %20
  %22 = load i32, ptr %9, align 4, !tbaa !9
  %23 = icmp slt i32 %22, 4
  br i1 %23, label %25, label %24

24:                                               ; preds = %21
  store i32 5, ptr %8, align 4
  br label %174

25:                                               ; preds = %21
  call void @llvm.lifetime.start.p0(i64 8, ptr %10) #7
  store double 0.000000e+00, ptr %10, align 8, !tbaa !15
  call void @llvm.lifetime.start.p0(i64 8, ptr %11) #7
  store double 0.000000e+00, ptr %11, align 8, !tbaa !15
  call void @llvm.lifetime.start.p0(i64 4, ptr %12) #7
  store i32 0, ptr %12, align 4, !tbaa !9
  br label %26

26:                                               ; preds = %146, %25
  %27 = load i32, ptr %12, align 4, !tbaa !9
  %28 = load i32, ptr %5, align 4, !tbaa !9
  %29 = icmp slt i32 %27, %28
  br i1 %29, label %31, label %30

30:                                               ; preds = %26
  store i32 8, ptr %8, align 4
  call void @llvm.lifetime.end.p0(i64 4, ptr %12) #7
  br label %149

31:                                               ; preds = %26
  call void @llvm.lifetime.start.p0(i64 4, ptr %13) #7
  store i32 0, ptr %13, align 4, !tbaa !9
  br label %32

32:                                               ; preds = %142, %31
  %33 = load i32, ptr %13, align 4, !tbaa !9
  %34 = icmp slt i32 %33, 4
  br i1 %34, label %36, label %35

35:                                               ; preds = %32
  store i32 11, ptr %8, align 4
  call void @llvm.lifetime.end.p0(i64 4, ptr %13) #7
  br label %145

36:                                               ; preds = %32
  %37 = load ptr, ptr %4, align 8, !tbaa !26
  %38 = load i32, ptr %12, align 4, !tbaa !9
  %39 = sext i32 %38 to i64
  %40 = getelementptr inbounds %struct.ComplexMatrix4, ptr %37, i64 %39
  %41 = getelementptr inbounds nuw %struct.ComplexMatrix4, ptr %40, i32 0, i32 0
  %42 = load i32, ptr %13, align 4, !tbaa !9
  %43 = sext i32 %42 to i64
  %44 = getelementptr inbounds [4 x [4 x double]], ptr %41, i64 0, i64 %43
  %45 = load i32, ptr %7, align 4, !tbaa !9
  %46 = sext i32 %45 to i64
  %47 = getelementptr inbounds [4 x double], ptr %44, i64 0, i64 %46
  %48 = load double, ptr %47, align 8, !tbaa !15
  %49 = load ptr, ptr %4, align 8, !tbaa !26
  %50 = load i32, ptr %12, align 4, !tbaa !9
  %51 = sext i32 %50 to i64
  %52 = getelementptr inbounds %struct.ComplexMatrix4, ptr %49, i64 %51
  %53 = getelementptr inbounds nuw %struct.ComplexMatrix4, ptr %52, i32 0, i32 0
  %54 = load i32, ptr %13, align 4, !tbaa !9
  %55 = sext i32 %54 to i64
  %56 = getelementptr inbounds [4 x [4 x double]], ptr %53, i64 0, i64 %55
  %57 = load i32, ptr %9, align 4, !tbaa !9
  %58 = sext i32 %57 to i64
  %59 = getelementptr inbounds [4 x double], ptr %56, i64 0, i64 %58
  %60 = load double, ptr %59, align 8, !tbaa !15
  %61 = load ptr, ptr %4, align 8, !tbaa !26
  %62 = load i32, ptr %12, align 4, !tbaa !9
  %63 = sext i32 %62 to i64
  %64 = getelementptr inbounds %struct.ComplexMatrix4, ptr %61, i64 %63
  %65 = getelementptr inbounds nuw %struct.ComplexMatrix4, ptr %64, i32 0, i32 1
  %66 = load i32, ptr %13, align 4, !tbaa !9
  %67 = sext i32 %66 to i64
  %68 = getelementptr inbounds [4 x [4 x double]], ptr %65, i64 0, i64 %67
  %69 = load i32, ptr %7, align 4, !tbaa !9
  %70 = sext i32 %69 to i64
  %71 = getelementptr inbounds [4 x double], ptr %68, i64 0, i64 %70
  %72 = load double, ptr %71, align 8, !tbaa !15
  %73 = load ptr, ptr %4, align 8, !tbaa !26
  %74 = load i32, ptr %12, align 4, !tbaa !9
  %75 = sext i32 %74 to i64
  %76 = getelementptr inbounds %struct.ComplexMatrix4, ptr %73, i64 %75
  %77 = getelementptr inbounds nuw %struct.ComplexMatrix4, ptr %76, i32 0, i32 1
  %78 = load i32, ptr %13, align 4, !tbaa !9
  %79 = sext i32 %78 to i64
  %80 = getelementptr inbounds [4 x [4 x double]], ptr %77, i64 0, i64 %79
  %81 = load i32, ptr %9, align 4, !tbaa !9
  %82 = sext i32 %81 to i64
  %83 = getelementptr inbounds [4 x double], ptr %80, i64 0, i64 %82
  %84 = load double, ptr %83, align 8, !tbaa !15
  %85 = fmul double %72, %84
  %86 = call double @llvm.fmuladd.f64(double %48, double %60, double %85)
  %87 = load double, ptr %10, align 8, !tbaa !15
  %88 = fadd double %87, %86
  store double %88, ptr %10, align 8, !tbaa !15
  %89 = load ptr, ptr %4, align 8, !tbaa !26
  %90 = load i32, ptr %12, align 4, !tbaa !9
  %91 = sext i32 %90 to i64
  %92 = getelementptr inbounds %struct.ComplexMatrix4, ptr %89, i64 %91
  %93 = getelementptr inbounds nuw %struct.ComplexMatrix4, ptr %92, i32 0, i32 0
  %94 = load i32, ptr %13, align 4, !tbaa !9
  %95 = sext i32 %94 to i64
  %96 = getelementptr inbounds [4 x [4 x double]], ptr %93, i64 0, i64 %95
  %97 = load i32, ptr %7, align 4, !tbaa !9
  %98 = sext i32 %97 to i64
  %99 = getelementptr inbounds [4 x double], ptr %96, i64 0, i64 %98
  %100 = load double, ptr %99, align 8, !tbaa !15
  %101 = load ptr, ptr %4, align 8, !tbaa !26
  %102 = load i32, ptr %12, align 4, !tbaa !9
  %103 = sext i32 %102 to i64
  %104 = getelementptr inbounds %struct.ComplexMatrix4, ptr %101, i64 %103
  %105 = getelementptr inbounds nuw %struct.ComplexMatrix4, ptr %104, i32 0, i32 1
  %106 = load i32, ptr %13, align 4, !tbaa !9
  %107 = sext i32 %106 to i64
  %108 = getelementptr inbounds [4 x [4 x double]], ptr %105, i64 0, i64 %107
  %109 = load i32, ptr %9, align 4, !tbaa !9
  %110 = sext i32 %109 to i64
  %111 = getelementptr inbounds [4 x double], ptr %108, i64 0, i64 %110
  %112 = load double, ptr %111, align 8, !tbaa !15
  %113 = load ptr, ptr %4, align 8, !tbaa !26
  %114 = load i32, ptr %12, align 4, !tbaa !9
  %115 = sext i32 %114 to i64
  %116 = getelementptr inbounds %struct.ComplexMatrix4, ptr %113, i64 %115
  %117 = getelementptr inbounds nuw %struct.ComplexMatrix4, ptr %116, i32 0, i32 1
  %118 = load i32, ptr %13, align 4, !tbaa !9
  %119 = sext i32 %118 to i64
  %120 = getelementptr inbounds [4 x [4 x double]], ptr %117, i64 0, i64 %119
  %121 = load i32, ptr %7, align 4, !tbaa !9
  %122 = sext i32 %121 to i64
  %123 = getelementptr inbounds [4 x double], ptr %120, i64 0, i64 %122
  %124 = load double, ptr %123, align 8, !tbaa !15
  %125 = load ptr, ptr %4, align 8, !tbaa !26
  %126 = load i32, ptr %12, align 4, !tbaa !9
  %127 = sext i32 %126 to i64
  %128 = getelementptr inbounds %struct.ComplexMatrix4, ptr %125, i64 %127
  %129 = getelementptr inbounds nuw %struct.ComplexMatrix4, ptr %128, i32 0, i32 0
  %130 = load i32, ptr %13, align 4, !tbaa !9
  %131 = sext i32 %130 to i64
  %132 = getelementptr inbounds [4 x [4 x double]], ptr %129, i64 0, i64 %131
  %133 = load i32, ptr %9, align 4, !tbaa !9
  %134 = sext i32 %133 to i64
  %135 = getelementptr inbounds [4 x double], ptr %132, i64 0, i64 %134
  %136 = load double, ptr %135, align 8, !tbaa !15
  %137 = fmul double %124, %136
  %138 = fneg double %137
  %139 = call double @llvm.fmuladd.f64(double %100, double %112, double %138)
  %140 = load double, ptr %11, align 8, !tbaa !15
  %141 = fadd double %140, %139
  store double %141, ptr %11, align 8, !tbaa !15
  br label %142

142:                                              ; preds = %36
  %143 = load i32, ptr %13, align 4, !tbaa !9
  %144 = add nsw i32 %143, 1
  store i32 %144, ptr %13, align 4, !tbaa !9
  br label %32

145:                                              ; preds = %35
  br label %146

146:                                              ; preds = %145
  %147 = load i32, ptr %12, align 4, !tbaa !9
  %148 = add nsw i32 %147, 1
  store i32 %148, ptr %12, align 4, !tbaa !9
  br label %26

149:                                              ; preds = %30
  call void @llvm.lifetime.start.p0(i64 8, ptr %14) #7
  %150 = load double, ptr %10, align 8, !tbaa !15
  %151 = load i32, ptr %7, align 4, !tbaa !9
  %152 = load i32, ptr %9, align 4, !tbaa !9
  %153 = icmp eq i32 %151, %152
  %154 = zext i1 %153 to i32
  %155 = sitofp i32 %154 to double
  %156 = fsub double %150, %155
  store double %156, ptr %14, align 8, !tbaa !15
  call void @llvm.lifetime.start.p0(i64 8, ptr %15) #7
  %157 = load double, ptr %11, align 8, !tbaa !15
  %158 = load double, ptr %11, align 8, !tbaa !15
  %159 = load double, ptr %14, align 8, !tbaa !15
  %160 = load double, ptr %14, align 8, !tbaa !15
  %161 = fmul double %159, %160
  %162 = call double @llvm.fmuladd.f64(double %157, double %158, double %161)
  store double %162, ptr %15, align 8, !tbaa !15
  %163 = load double, ptr %15, align 8, !tbaa !15
  %164 = load double, ptr %6, align 8, !tbaa !15
  %165 = fcmp ogt double %163, %164
  br i1 %165, label %166, label %167

166:                                              ; preds = %149
  store i32 0, ptr %3, align 4
  store i32 1, ptr %8, align 4
  br label %168

167:                                              ; preds = %149
  store i32 0, ptr %8, align 4
  br label %168

168:                                              ; preds = %167, %166
  call void @llvm.lifetime.end.p0(i64 8, ptr %15) #7
  call void @llvm.lifetime.end.p0(i64 8, ptr %14) #7
  call void @llvm.lifetime.end.p0(i64 8, ptr %11) #7
  call void @llvm.lifetime.end.p0(i64 8, ptr %10) #7
  %169 = load i32, ptr %8, align 4
  switch i32 %169, label %174 [
    i32 0, label %170
  ]

170:                                              ; preds = %168
  br label %171

171:                                              ; preds = %170
  %172 = load i32, ptr %9, align 4, !tbaa !9
  %173 = add nsw i32 %172, 1
  store i32 %173, ptr %9, align 4, !tbaa !9
  br label %21

174:                                              ; preds = %168, %24
  call void @llvm.lifetime.end.p0(i64 4, ptr %9) #7
  %175 = load i32, ptr %8, align 4
  switch i32 %175, label %180 [
    i32 5, label %176
  ]

176:                                              ; preds = %174
  br label %177

177:                                              ; preds = %176
  %178 = load i32, ptr %7, align 4, !tbaa !9
  %179 = add nsw i32 %178, 1
  store i32 %179, ptr %7, align 4, !tbaa !9
  br label %16

180:                                              ; preds = %174, %19
  call void @llvm.lifetime.end.p0(i64 4, ptr %7) #7
  %181 = load i32, ptr %8, align 4
  switch i32 %181, label %183 [
    i32 2, label %182
  ]

182:                                              ; preds = %180
  store i32 1, ptr %3, align 4
  store i32 1, ptr %8, align 4
  br label %183

183:                                              ; preds = %182, %180
  call void @llvm.lifetime.end.p0(i64 8, ptr %6) #7
  %184 = load i32, ptr %3, align 4
  ret i32 %184
}

; Function Attrs: nounwind uwtable
define void @validateTwoQubitKrausMapDimensions(ptr noundef byval(%struct.Qureg) align 8 %0, ptr noundef %1, i32 noundef %2, ptr noundef %3) #0 {
  %5 = alloca ptr, align 8
  %6 = alloca i32, align 4
  %7 = alloca ptr, align 8
  %8 = alloca i32, align 4
  %9 = alloca i32, align 4
  %10 = alloca i32, align 4
  store ptr %1, ptr %5, align 8, !tbaa !26
  store i32 %2, ptr %6, align 4, !tbaa !9
  store ptr %3, ptr %7, align 8, !tbaa !4
  call void @llvm.lifetime.start.p0(i64 4, ptr %8) #7
  store i32 2, ptr %8, align 4, !tbaa !9
  call void @llvm.lifetime.start.p0(i64 4, ptr %9) #7
  %11 = load i32, ptr %8, align 4, !tbaa !9
  %12 = mul nsw i32 2, %11
  store i32 %12, ptr %9, align 4, !tbaa !9
  call void @llvm.lifetime.start.p0(i64 4, ptr %10) #7
  %13 = load i32, ptr %9, align 4, !tbaa !9
  %14 = load i32, ptr %9, align 4, !tbaa !9
  %15 = mul nsw i32 %13, %14
  store i32 %15, ptr %10, align 4, !tbaa !9
  %16 = load i32, ptr %6, align 4, !tbaa !9
  %17 = icmp sgt i32 %16, 0
  br i1 %17, label %18, label %22

18:                                               ; preds = %4
  %19 = load i32, ptr %6, align 4, !tbaa !9
  %20 = load i32, ptr %10, align 4, !tbaa !9
  %21 = icmp sle i32 %19, %20
  br label %22

22:                                               ; preds = %18, %4
  %23 = phi i1 [ false, %4 ], [ %21, %18 ]
  %24 = zext i1 %23 to i32
  %25 = load ptr, ptr %7, align 8, !tbaa !4
  call void @QuESTAssert(i32 noundef %24, i32 noundef 50, ptr noundef %25)
  %26 = load i32, ptr %9, align 4, !tbaa !9
  %27 = load ptr, ptr %7, align 8, !tbaa !4
  call void @validateMultiQubitMatrixFitsInNode(ptr noundef byval(%struct.Qureg) align 8 %0, i32 noundef %26, ptr noundef %27)
  call void @llvm.lifetime.end.p0(i64 4, ptr %10) #7
  call void @llvm.lifetime.end.p0(i64 4, ptr %9) #7
  call void @llvm.lifetime.end.p0(i64 4, ptr %8) #7
  ret void
}

; Function Attrs: nounwind uwtable
define void @validateTwoQubitKrausMap(ptr noundef byval(%struct.Qureg) align 8 %0, ptr noundef %1, i32 noundef %2, ptr noundef %3) #0 {
  %5 = alloca ptr, align 8
  %6 = alloca i32, align 4
  %7 = alloca ptr, align 8
  store ptr %1, ptr %5, align 8, !tbaa !26
  store i32 %2, ptr %6, align 4, !tbaa !9
  store ptr %3, ptr %7, align 8, !tbaa !4
  %8 = load ptr, ptr %5, align 8, !tbaa !26
  %9 = load i32, ptr %6, align 4, !tbaa !9
  %10 = load ptr, ptr %7, align 8, !tbaa !4
  call void @validateTwoQubitKrausMapDimensions(ptr noundef byval(%struct.Qureg) align 8 %0, ptr noundef %8, i32 noundef %9, ptr noundef %10)
  %11 = load ptr, ptr %5, align 8, !tbaa !26
  %12 = load i32, ptr %6, align 4, !tbaa !9
  %13 = call i32 @isCompletelyPositiveMap4(ptr noundef %11, i32 noundef %12)
  %14 = load ptr, ptr %7, align 8, !tbaa !4
  call void @QuESTAssert(i32 noundef %13, i32 noundef 52, ptr noundef %14)
  ret void
}