; Function Attrs: nounwind uwtable
define void @validateTwoQubitKrausMap(ptr noundef readonly byval(%struct.Qureg) align 8 captures(none) %0, ptr noundef readonly captures(none) %1, i32 noundef %2, ptr noundef %3) local_unnamed_addr #3 {
  %.sroa.3.0..sroa_idx = getelementptr inbounds nuw i8, ptr %0, i64 16
  %.sroa.3.0.copyload = load i64, ptr %.sroa.3.0..sroa_idx, align 8
  %5 = add i32 %2, -17
  %6 = icmp ult i32 %5, -16
  br i1 %6, label %7, label %QuESTAssert.exit.i

7:                                                ; preds = %4
  tail call void @invalidQuESTInputError(ptr noundef nonnull @.str.52, ptr noundef %3)
  br label %QuESTAssert.exit.i

QuESTAssert.exit.i:                               ; preds = %7, %4
  %.not.i8.i = icmp slt i64 %.sroa.3.0.copyload, 16
  br i1 %.not.i8.i, label %8, label %validateTwoQubitKrausMapDimensions.exit

8:                                                ; preds = %QuESTAssert.exit.i
  tail call void @invalidQuESTInputError(ptr noundef nonnull @.str.48, ptr noundef %3)
  br label %validateTwoQubitKrausMapDimensions.exit

validateTwoQubitKrausMapDimensions.exit:          ; preds = %QuESTAssert.exit.i, %8
  %9 = icmp sgt i32 %2, 0
  br i1 %9, label %.preheader69.us.preheader.i, label %.loopexit

.preheader69.us.preheader.i:                      ; preds = %validateTwoQubitKrausMapDimensions.exit
  %wide.trip.count.i = zext nneg i32 %2 to i64
  br label %.preheader69.us.i

.preheader69.us.i:                                ; preds = %.critedge.split.us.us.i, %.preheader69.us.preheader.i
  %indvars.iv98.i = phi i64 [ 0, %.preheader69.us.preheader.i ], [ %indvars.iv.next99.i, %.critedge.split.us.us.i ]
  br label %.preheader68.us.us.i

.preheader68.us.us.i:                             ; preds = %29, %.preheader69.us.i
  %indvars.iv94.i = phi i64 [ %indvars.iv.next95.i, %29 ], [ 0, %.preheader69.us.i ]
  br label %.preheader.us.us.i

10:                                               ; preds = %11
  %indvars.iv.next91.i = add nuw nsw i64 %indvars.iv90.i, 1
  %exitcond93.not.i = icmp eq i64 %indvars.iv.next91.i, %wide.trip.count.i
  br i1 %exitcond93.not.i, label %._crit_edge.us.us.i, label %.preheader.us.us.i

11:                                               ; preds = %.preheader.us.us.i, %11
  %indvars.iv.i = phi i64 [ 0, %.preheader.us.us.i ], [ %indvars.iv.next.i, %11 ]
  %.16173.us.us.i = phi double [ %.06076.us.us.i, %.preheader.us.us.i ], [ %26, %11 ]
  %.16372.us.us.i = phi double [ %.06275.us.us.i, %.preheader.us.us.i ], [ %22, %11 ]
  %12 = getelementptr inbounds nuw [4 x [4 x double]], ptr %27, i64 0, i64 %indvars.iv.i, i64 %indvars.iv98.i
  %13 = load double, ptr %12, align 8, !tbaa !9
  %14 = getelementptr inbounds nuw [4 x [4 x double]], ptr %27, i64 0, i64 %indvars.iv.i, i64 %indvars.iv94.i
  %15 = load double, ptr %14, align 8, !tbaa !9
  %16 = getelementptr inbounds nuw [4 x [4 x double]], ptr %28, i64 0, i64 %indvars.iv.i, i64 %indvars.iv98.i
  %17 = load double, ptr %16, align 8, !tbaa !9
  %18 = getelementptr inbounds nuw [4 x [4 x double]], ptr %28, i64 0, i64 %indvars.iv.i, i64 %indvars.iv94.i
  %19 = load double, ptr %18, align 8, !tbaa !9
  %20 = fmul double %17, %19
  %21 = tail call double @llvm.fmuladd.f64(double %13, double %15, double %20)
  %22 = fadd double %.16372.us.us.i, %21
  %23 = fneg double %15
  %24 = fmul double %17, %23
  %25 = tail call double @llvm.fmuladd.f64(double %13, double %19, double %24)
  %26 = fadd double %.16173.us.us.i, %25
  %indvars.iv.next.i = add nuw nsw i64 %indvars.iv.i, 1
  %exitcond89.not.i = icmp eq i64 %indvars.iv.next.i, 4
  br i1 %exitcond89.not.i, label %10, label %11

.preheader.us.us.i:                               ; preds = %10, %.preheader68.us.us.i
  %indvars.iv90.i = phi i64 [ %indvars.iv.next91.i, %10 ], [ 0, %.preheader68.us.us.i ]
  %.06076.us.us.i = phi double [ %26, %10 ], [ 0.000000e+00, %.preheader68.us.us.i ]
  %.06275.us.us.i = phi double [ %22, %10 ], [ 0.000000e+00, %.preheader68.us.us.i ]
  %27 = getelementptr inbounds nuw %struct.ComplexMatrix4, ptr %1, i64 %indvars.iv90.i
  %28 = getelementptr inbounds nuw i8, ptr %27, i64 128
  br label %11

29:                                               ; preds = %._crit_edge.us.us.i
  %indvars.iv.next95.i = add nuw nsw i64 %indvars.iv94.i, 1
  %exitcond97.i = icmp eq i64 %indvars.iv.next95.i, 4
  br i1 %exitcond97.i, label %.critedge.split.us.us.i, label %.preheader68.us.us.i

._crit_edge.us.us.i:                              ; preds = %10
  %30 = icmp eq i64 %indvars.iv98.i, %indvars.iv94.i
  %31 = uitofp i1 %30 to double
  %32 = fsub double %22, %31
  %33 = fmul double %32, %32
  %34 = tail call double @llvm.fmuladd.f64(double %26, double %26, double %33)
  %35 = fcmp ule double %34, 1.000000e-26
  br i1 %35, label %29, label %.loopexit

.critedge.split.us.us.i:                          ; preds = %29
  %indvars.iv.next99.i = add nuw nsw i64 %indvars.iv98.i, 1
  %exitcond101.i = icmp eq i64 %indvars.iv.next99.i, 4
  br i1 %exitcond101.i, label %QuESTAssert.exit, label %.preheader69.us.i

.loopexit:                                        ; preds = %._crit_edge.us.us.i, %validateTwoQubitKrausMapDimensions.exit
  tail call void @invalidQuESTInputError(ptr noundef nonnull @.str.54, ptr noundef %3)
  br label %QuESTAssert.exit

QuESTAssert.exit:                                 ; preds = %.critedge.split.us.us.i, %.loopexit
  ret void
}